target datalayout = "e-m:e-p270:32:32-p271:32:32-p272:64:64-i64:64-i128:128-f80:128-n8:16:32:64-S128"
target triple = "x86_64-pc-linux-gnu"

@proto_vlan = internal global i32 0, align 4
@q_in_q_ethertype = internal global i32 37120, align 4
@vlan_handle = internal global ptr null, align 8
@proto_reg_handoff_vlan.prefs_initialized = internal global i8 0, align 1
@proto_reg_handoff_vlan.old_q_in_q_ethertype = internal global i32 0, align 4
@.str.57 = private unnamed_addr constant [10 x i8] c"ethertype\00", align 1
@ethertype_handle = internal global ptr null, align 8
@.str.58 = private unnamed_addr constant [4 x i8] c"llc\00", align 1
@llc_cap_handle = internal global ptr null, align 8
@.str.59 = private unnamed_addr constant [4 x i8] c"ipx\00", align 1
@ipx_cap_handle = internal global ptr null, align 8

; Function Attrs: null_pointer_is_valid sspstrong uwtable
define hidden void @proto_reg_handoff_vlan() #0 {
  %1 = alloca ptr, align 8
  call void @llvm.lifetime.start.p0(i64 8, ptr %1) #4
  %2 = load i8, ptr @proto_reg_handoff_vlan.prefs_initialized, align 1, !range !6, !noundef !7
  %3 = trunc i8 %2 to i1
  br i1 %3, label %9, label %4

4:                                                ; preds = %0
  %5 = load ptr, ptr @vlan_handle, align 8
  call void @dissector_add_uint(ptr noundef @.str.57, i32 noundef 33024, ptr noundef %5)
  %6 = load i32, ptr @proto_vlan, align 4
  %7 = call ptr @create_capture_dissector_handle(ptr noundef @capture_vlan, i32 noundef %6)
  store ptr %7, ptr %1, align 8
  %8 = load ptr, ptr %1, align 8
  call void @capture_dissector_add_uint(ptr noundef @.str.57, i32 noundef 33024, ptr noundef %8)
  store i8 1, ptr @proto_reg_handoff_vlan.prefs_initialized, align 1
  br label %12

9:                                                ; preds = %0
  %10 = load i32, ptr @proto_reg_handoff_vlan.old_q_in_q_ethertype, align 4
  %11 = load ptr, ptr @vlan_handle, align 8
  call void @dissector_delete_uint(ptr noundef @.str.57, i32 noundef %10, ptr noundef %11)
  br label %12

12:                                               ; preds = %9, %4
  %13 = load i32, ptr @q_in_q_ethertype, align 4
  store i32 %13, ptr @proto_reg_handoff_vlan.old_q_in_q_ethertype, align 4
  %14 = load i32, ptr @proto_vlan, align 4
  %15 = call ptr @find_dissector_add_dependency(ptr noundef @.str.57, i32 noundef %14)
  store ptr %15, ptr @ethertype_handle, align 8
  %16 = load i32, ptr @q_in_q_ethertype, align 4
  %17 = load ptr, ptr @vlan_handle, align 8
  call void @dissector_add_uint(ptr noundef @.str.57, i32 noundef %16, ptr noundef %17)
  %18 = call ptr @find_capture_dissector(ptr noundef @.str.58)
  store ptr %18, ptr @llc_cap_handle, align 8
  %19 = call ptr @find_capture_dissector(ptr noundef @.str.59)
  store ptr %19, ptr @ipx_cap_handle, align 8
  call void @llvm.lifetime.end.p0(i64 8, ptr %1) #4
  ret void
}