; Function Attrs: null_pointer_is_valid sspstrong uwtable
define hidden void @proto_reg_handoff_vlan() #0 {
  %.b1 = load i1, ptr @proto_reg_handoff_vlan.prefs_initialized, align 1
  br i1 %.b1, label %5, label %1

1:                                                ; preds = %0
  %2 = load ptr, ptr @vlan_handle, align 8
  tail call void @dissector_add_uint(ptr noundef nonnull @.str.57, i32 noundef 33024, ptr noundef %2)
  %3 = load i32, ptr @proto_vlan, align 4
  %4 = tail call ptr @create_capture_dissector_handle(ptr noundef nonnull @capture_vlan, i32 noundef %3)
  tail call void @capture_dissector_add_uint(ptr noundef nonnull @.str.57, i32 noundef 33024, ptr noundef %4)
  store i1 true, ptr @proto_reg_handoff_vlan.prefs_initialized, align 1
  br label %8

5:                                                ; preds = %0
  %6 = load i32, ptr @proto_reg_handoff_vlan.old_q_in_q_ethertype, align 4
  %7 = load ptr, ptr @vlan_handle, align 8
  tail call void @dissector_delete_uint(ptr noundef nonnull @.str.57, i32 noundef %6, ptr noundef %7)
  br label %8

8:                                                ; preds = %5, %1
  %9 = load i32, ptr @q_in_q_ethertype, align 4
  store i32 %9, ptr @proto_reg_handoff_vlan.old_q_in_q_ethertype, align 4
  %10 = load i32, ptr @proto_vlan, align 4
  %11 = tail call ptr @find_dissector_add_dependency(ptr noundef nonnull @.str.57, i32 noundef %10)
  store ptr %11, ptr @ethertype_handle, align 8
  %12 = load i32, ptr @q_in_q_ethertype, align 4
  %13 = load ptr, ptr @vlan_handle, align 8
  tail call void @dissector_add_uint(ptr noundef nonnull @.str.57, i32 noundef %12, ptr noundef %13)
  %14 = tail call ptr @find_capture_dissector(ptr noundef nonnull @.str.58)
  store ptr %14, ptr @llc_cap_handle, align 8
  %15 = tail call ptr @find_capture_dissector(ptr noundef nonnull @.str.59)
  store ptr %15, ptr @ipx_cap_handle, align 8
  ret void
}